; Function Attrs: nounwind uwtable
define dso_local void @ExtendCLOG(i32 noundef %0) local_unnamed_addr #0 {
  %2 = alloca i64, align 8
  %3 = and i32 %0, 32767
  %4 = icmp eq i32 %3, 0
  %5 = icmp eq i32 %0, 3
  %or.cond = or i1 %5, %4
  br i1 %or.cond, label %6, label %20

6:                                                ; preds = %1
  %7 = lshr i32 %0, 15
  %8 = zext nneg i32 %7 to i64
  %9 = load i16, ptr getelementptr inbounds nuw (i8, ptr @XactCtlData, i64 8), align 8
  %.rhs.trunc = zext i16 %9 to i32
  %10 = urem i32 %7, %.rhs.trunc
  %11 = load ptr, ptr @XactCtlData, align 8
  %12 = getelementptr inbounds nuw i8, ptr %11, i64 56
  %13 = load ptr, ptr %12, align 8
  %14 = shl nuw nsw i32 %10, 7
  %15 = zext nneg i32 %14 to i64
  %16 = getelementptr inbounds nuw i8, ptr %13, i64 %15
  %17 = tail call zeroext i1 @LWLockAcquire(ptr noundef %16, i32 noundef 0) #9
  %18 = tail call i32 @SimpleLruZeroPage(ptr noundef nonnull @XactCtlData, i64 noundef %8) #9
  call void @llvm.lifetime.start.p0(i64 8, ptr nonnull %2)
  store i64 %8, ptr %2, align 8
  tail call void @XLogBeginInsert() #9
  call void @XLogRegisterData(ptr noundef nonnull %2, i32 noundef 8) #9
  %19 = call i64 @XLogInsert(i8 noundef zeroext 3, i8 noundef zeroext 0) #9
  call void @llvm.lifetime.end.p0(i64 8, ptr nonnull %2)
  call void @LWLockRelease(ptr noundef %16) #9
  br label %20

20:                                               ; preds = %1, %6
  ret void
}